target datalayout = "e-m:e-p270:32:32-p271:32:32-p272:64:64-i64:64-i128:128-f80:128-n8:16:32:64-S128"
target triple = "x86_64-pc-linux-gnu"

%struct.slurmdb_assoc_rec = type { ptr, ptr, ptr, ptr, ptr, ptr, ptr, i32, i32, i32, i32, i32, ptr, ptr, ptr, ptr, ptr, ptr, i32, i32, i16, ptr, ptr, i32, i32, i32, ptr, ptr, ptr, ptr, ptr, ptr, ptr, ptr, i32, i32, ptr, i32, ptr, i32, ptr, i32, i32, ptr, ptr, ptr }
%struct.slurmdb_add_assoc_cond_t = type { ptr, %struct.slurmdb_assoc_rec, ptr, ptr, ptr, ptr, ptr }

; Function Attrs: nounwind uwtable
define dso_local void @slurmdb_free_add_assoc_cond_members(ptr noundef %0) #0 {
  %2 = alloca ptr, align 8
  store ptr %0, ptr %2, align 8
  %3 = load ptr, ptr %2, align 8
  %4 = icmp ne ptr %3, null
  br i1 %4, label %6, label %5

5:                                                ; preds = %1
  br label %75

6:                                                ; preds = %1
  br label %7

7:                                                ; preds = %6
  %8 = load ptr, ptr %2, align 8
  %9 = getelementptr inbounds nuw %struct.slurmdb_add_assoc_cond_t, ptr %8, i32 0, i32 0
  %10 = load ptr, ptr %9, align 8
  %11 = icmp ne ptr %10, null
  br i1 %11, label %12, label %16

12:                                               ; preds = %7
  %13 = load ptr, ptr %2, align 8
  %14 = getelementptr inbounds nuw %struct.slurmdb_add_assoc_cond_t, ptr %13, i32 0, i32 0
  %15 = load ptr, ptr %14, align 8
  call void @list_destroy(ptr noundef %15)
  br label %16

16:                                               ; preds = %12, %7
  %17 = load ptr, ptr %2, align 8
  %18 = getelementptr inbounds nuw %struct.slurmdb_add_assoc_cond_t, ptr %17, i32 0, i32 0
  store ptr null, ptr %18, align 8
  br label %19

19:                                               ; preds = %16
  %20 = load ptr, ptr %2, align 8
  %21 = getelementptr inbounds nuw %struct.slurmdb_add_assoc_cond_t, ptr %20, i32 0, i32 1
  call void @slurmdb_free_assoc_rec_members(ptr noundef %21)
  br label %22

22:                                               ; preds = %19
  %23 = load ptr, ptr %2, align 8
  %24 = getelementptr inbounds nuw %struct.slurmdb_add_assoc_cond_t, ptr %23, i32 0, i32 2
  %25 = load ptr, ptr %24, align 8
  %26 = icmp ne ptr %25, null
  br i1 %26, label %27, label %31

27:                                               ; preds = %22
  %28 = load ptr, ptr %2, align 8
  %29 = getelementptr inbounds nuw %struct.slurmdb_add_assoc_cond_t, ptr %28, i32 0, i32 2
  %30 = load ptr, ptr %29, align 8
  call void @list_destroy(ptr noundef %30)
  br label %31

31:                                               ; preds = %27, %22
  %32 = load ptr, ptr %2, align 8
  %33 = getelementptr inbounds nuw %struct.slurmdb_add_assoc_cond_t, ptr %32, i32 0, i32 2
  store ptr null, ptr %33, align 8
  br label %34

34:                                               ; preds = %31
  %35 = load ptr, ptr %2, align 8
  %36 = getelementptr inbounds nuw %struct.slurmdb_add_assoc_cond_t, ptr %35, i32 0, i32 3
  call void @slurm_xfree(ptr noundef %36)
  br label %37

37:                                               ; preds = %34
  %38 = load ptr, ptr %2, align 8
  %39 = getelementptr inbounds nuw %struct.slurmdb_add_assoc_cond_t, ptr %38, i32 0, i32 4
  %40 = load ptr, ptr %39, align 8
  %41 = icmp ne ptr %40, null
  br i1 %41, label %42, label %46

42:                                               ; preds = %37
  %43 = load ptr, ptr %2, align 8
  %44 = getelementptr inbounds nuw %struct.slurmdb_add_assoc_cond_t, ptr %43, i32 0, i32 4
  %45 = load ptr, ptr %44, align 8
  call void @list_destroy(ptr noundef %45)
  br label %46

46:                                               ; preds = %42, %37
  %47 = load ptr, ptr %2, align 8
  %48 = getelementptr inbounds nuw %struct.slurmdb_add_assoc_cond_t, ptr %47, i32 0, i32 4
  store ptr null, ptr %48, align 8
  br label %49

49:                                               ; preds = %46
  br label %50

50:                                               ; preds = %49
  %51 = load ptr, ptr %2, align 8
  %52 = getelementptr inbounds nuw %struct.slurmdb_add_assoc_cond_t, ptr %51, i32 0, i32 5
  %53 = load ptr, ptr %52, align 8
  %54 = icmp ne ptr %53, null
  br i1 %54, label %55, label %59

55:                                               ; preds = %50
  %56 = load ptr, ptr %2, align 8
  %57 = getelementptr inbounds nuw %struct.slurmdb_add_assoc_cond_t, ptr %56, i32 0, i32 5
  %58 = load ptr, ptr %57, align 8
  call void @list_destroy(ptr noundef %58)
  br label %59

59:                                               ; preds = %55, %50
  %60 = load ptr, ptr %2, align 8
  %61 = getelementptr inbounds nuw %struct.slurmdb_add_assoc_cond_t, ptr %60, i32 0, i32 5
  store ptr null, ptr %61, align 8
  br label %62

62:                                               ; preds = %59
  br label %63

63:                                               ; preds = %62
  %64 = load ptr, ptr %2, align 8
  %65 = getelementptr inbounds nuw %struct.slurmdb_add_assoc_cond_t, ptr %64, i32 0, i32 6
  %66 = load ptr, ptr %65, align 8
  %67 = icmp ne ptr %66, null
  br i1 %67, label %68, label %72

68:                                               ; preds = %63
  %69 = load ptr, ptr %2, align 8
  %70 = getelementptr inbounds nuw %struct.slurmdb_add_assoc_cond_t, ptr %69, i32 0, i32 6
  %71 = load ptr, ptr %70, align 8
  call void @list_destroy(ptr noundef %71)
  br label %72

72:                                               ; preds = %68, %63
  %73 = load ptr, ptr %2, align 8
  %74 = getelementptr inbounds nuw %struct.slurmdb_add_assoc_cond_t, ptr %73, i32 0, i32 6
  store ptr null, ptr %74, align 8
  br label %75

75:                                               ; preds = %5, %72
  ret void
}