; Function Attrs: nounwind uwtable
define dso_local void @slurmdb_free_add_assoc_cond_members(ptr noundef %0) local_unnamed_addr #0 {
  %.not = icmp eq ptr %0, null
  br i1 %.not, label %24, label %2

2:                                                ; preds = %1
  %3 = load ptr, ptr %0, align 8
  %.not23 = icmp eq ptr %3, null
  br i1 %.not23, label %5, label %4

4:                                                ; preds = %2
  tail call void @list_destroy(ptr noundef nonnull %3) #19
  br label %5

5:                                                ; preds = %4, %2
  store ptr null, ptr %0, align 8
  %6 = getelementptr inbounds nuw i8, ptr %0, i64 8
  tail call void @slurmdb_free_assoc_rec_members(ptr noundef nonnull %6)
  %7 = getelementptr inbounds nuw i8, ptr %0, i64 328
  %8 = load ptr, ptr %7, align 8
  %.not24 = icmp eq ptr %8, null
  br i1 %.not24, label %10, label %9

9:                                                ; preds = %5
  tail call void @list_destroy(ptr noundef nonnull %8) #19
  br label %10

10:                                               ; preds = %9, %5
  store ptr null, ptr %7, align 8
  %11 = getelementptr inbounds nuw i8, ptr %0, i64 336
  tail call void @slurm_xfree(ptr noundef nonnull %11) #19
  %12 = getelementptr inbounds nuw i8, ptr %0, i64 344
  %13 = load ptr, ptr %12, align 8
  %.not25 = icmp eq ptr %13, null
  br i1 %.not25, label %15, label %14

14:                                               ; preds = %10
  tail call void @list_destroy(ptr noundef nonnull %13) #19
  br label %15

15:                                               ; preds = %14, %10
  store ptr null, ptr %12, align 8
  %16 = getelementptr inbounds nuw i8, ptr %0, i64 352
  %17 = load ptr, ptr %16, align 8
  %.not26 = icmp eq ptr %17, null
  br i1 %.not26, label %19, label %18

18:                                               ; preds = %15
  tail call void @list_destroy(ptr noundef nonnull %17) #19
  br label %19

19:                                               ; preds = %18, %15
  store ptr null, ptr %16, align 8
  %20 = getelementptr inbounds nuw i8, ptr %0, i64 360
  %21 = load ptr, ptr %20, align 8
  %.not27 = icmp eq ptr %21, null
  br i1 %.not27, label %23, label %22

22:                                               ; preds = %19
  tail call void @list_destroy(ptr noundef nonnull %21) #19
  br label %23

23:                                               ; preds = %22, %19
  store ptr null, ptr %20, align 8
  br label %24

24:                                               ; preds = %1, %23
  ret void
}